target datalayout = "e-m:e-p270:32:32-p271:32:32-p272:64:64-i64:64-i128:128-f80:128-n8:16:32:64-S128"
target triple = "x86_64-pc-linux-gnu"

%class.Symbol = type { i32, i16, [2 x i8] }

@StressSecondarySupers = external global i8, align 1
@_ZN6Symbol11_vm_symbolsE = external global [0 x ptr], align 8

; Function Attrs: mustprogress nounwind uwtable
define linkonce_odr hidden noundef i32 @_ZNK6Symbol6lengthEv(ptr noundef nonnull align 4 dereferenceable(8) %0) #1 comdat align 2 {
  %2 = alloca ptr, align 8
  store ptr %0, ptr %2, align 8
  %3 = load ptr, ptr %2, align 8
  %4 = getelementptr inbounds %class.Symbol, ptr %3, i32 0, i32 1
  %5 = load i16, ptr %4, align 4
  %6 = zext i16 %5 to i32
  ret i32 %6
}

; Function Attrs: mustprogress nounwind uwtable
define linkonce_odr hidden noundef ptr @_ZNK6Symbol4baseEv(ptr noundef nonnull align 4 dereferenceable(8) %0) #1 comdat align 2 {
  %2 = alloca ptr, align 8
  store ptr %0, ptr %2, align 8
  %3 = load ptr, ptr %2, align 8
  %4 = getelementptr inbounds %class.Symbol, ptr %3, i32 0, i32 2
  %5 = getelementptr inbounds [2 x i8], ptr %4, i64 0, i64 0
  ret ptr %5
}

; Function Attrs: mustprogress nounwind uwtable
define linkonce_odr hidden noundef i32 @_ZN16java_lang_String9hash_codeEPKai(ptr noundef %0, i32 noundef %1) #1 comdat align 2 {
  %3 = alloca ptr, align 8
  %4 = alloca i32, align 4
  %5 = alloca i32, align 4
  store ptr %0, ptr %3, align 8
  store i32 %1, ptr %4, align 4
  store i32 0, ptr %5, align 4
  br label %6

6:                                                ; preds = %10, %2
  %7 = load i32, ptr %4, align 4
  %8 = add nsw i32 %7, -1
  store i32 %8, ptr %4, align 4
  %9 = icmp sgt i32 %7, 0
  br i1 %9, label %10, label %20

10:                                               ; preds = %6
  %11 = load i32, ptr %5, align 4
  %12 = mul i32 31, %11
  %13 = load ptr, ptr %3, align 8
  %14 = load i8, ptr %13, align 1
  %15 = sext i8 %14 to i32
  %16 = and i32 %15, 255
  %17 = add i32 %12, %16
  store i32 %17, ptr %5, align 4
  %18 = load ptr, ptr %3, align 8
  %19 = getelementptr inbounds i8, ptr %18, i32 1
  store ptr %19, ptr %3, align 8
  br label %6, !llvm.loop !6

20:                                               ; preds = %6
  %21 = load i32, ptr %5, align 4
  ret i32 %21
}

; Function Attrs: mustprogress nounwind uwtable
define linkonce_odr hidden noundef i32 @_ZNK6Symbol11utf8_lengthEv(ptr noundef nonnull align 4 dereferenceable(8) %0) #1 comdat align 2 {
  %2 = alloca ptr, align 8
  store ptr %0, ptr %2, align 8
  %3 = load ptr, ptr %2, align 8
  %4 = call noundef i32 @_ZNK6Symbol6lengthEv(ptr noundef nonnull align 4 dereferenceable(8) %3)
  ret i32 %4
}

; Function Attrs: mustprogress nounwind uwtable
define linkonce_odr hidden noundef ptr @_ZNK6Symbol5bytesEv(ptr noundef nonnull align 4 dereferenceable(8) %0) #1 comdat align 2 {
  %2 = alloca ptr, align 8
  store ptr %0, ptr %2, align 8
  %3 = load ptr, ptr %2, align 8
  %4 = call noundef ptr @_ZNK6Symbol4baseEv(ptr noundef nonnull align 4 dereferenceable(8) %3)
  ret ptr %4
}

; Function Attrs: mustprogress nounwind uwtable
define linkonce_odr hidden noundef ptr @_ZN9vmSymbols20java_io_SerializableEv() #1 comdat align 2 {
  %1 = load ptr, ptr getelementptr inbounds ([0 x ptr], ptr @_ZN6Symbol11_vm_symbolsE, i64 0, i64 74), align 8
  ret ptr %1
}

; Function Attrs: mustprogress nounwind uwtable
define linkonce_odr hidden noundef ptr @_ZN9vmSymbols19java_lang_CloneableEv() #1 comdat align 2 {
  %1 = load ptr, ptr getelementptr inbounds ([0 x ptr], ptr @_ZN6Symbol11_vm_symbolsE, i64 0, i64 16), align 8
  ret ptr %1
}

; Function Attrs: mustprogress nounwind uwtable
define hidden noundef zeroext i8 @_ZN5Klass17compute_hash_slotEP6Symbol(ptr noundef %0) #1 align 2 {
  %2 = alloca ptr, align 8
  %3 = alloca i32, align 4
  %4 = alloca ptr, align 8
  %5 = alloca i32, align 4
  %6 = alloca i32, align 4
  store ptr %0, ptr %2, align 8
  %7 = load ptr, ptr %2, align 8
  %8 = call noundef ptr @_ZN9vmSymbols19java_lang_CloneableEv()
  %9 = icmp eq ptr %7, %8
  br i1 %9, label %10, label %11

10:                                               ; preds = %1
  store i32 0, ptr %3, align 4
  br label %35

11:                                               ; preds = %1
  %12 = load ptr, ptr %2, align 8
  %13 = call noundef ptr @_ZN9vmSymbols20java_io_SerializableEv()
  %14 = icmp eq ptr %12, %13
  br i1 %14, label %15, label %16

15:                                               ; preds = %11
  store i32 32, ptr %3, align 4
  br label %34

16:                                               ; preds = %11
  %17 = load ptr, ptr %2, align 8
  %18 = call noundef ptr @_ZNK6Symbol5bytesEv(ptr noundef nonnull align 4 dereferenceable(8) %17)
  store ptr %18, ptr %4, align 8
  %19 = load ptr, ptr %4, align 8
  %20 = load ptr, ptr %2, align 8
  %21 = call noundef i32 @_ZNK6Symbol11utf8_lengthEv(ptr noundef nonnull align 4 dereferenceable(8) %20)
  %22 = call noundef i32 @_ZN16java_lang_String9hash_codeEPKai(ptr noundef %19, i32 noundef %21)
  store i32 %22, ptr %3, align 4
  store i32 -1640531527, ptr %5, align 4
  store i32 26, ptr %6, align 4
  %23 = load i32, ptr %3, align 4
  %24 = mul i32 %23, -1640531527
  %25 = lshr i32 %24, 26
  store i32 %25, ptr %3, align 4
  %26 = load i8, ptr @StressSecondarySupers, align 1
  %27 = trunc i8 %26 to i1
  br i1 %27, label %28, label %33

28:                                               ; preds = %16
  %29 = load i32, ptr %3, align 4
  %30 = urem i32 %29, 3
  store i32 %30, ptr %3, align 4
  %31 = load i32, ptr %3, align 4
  %32 = mul i32 %31, 21
  store i32 %32, ptr %3, align 4
  br label %33

33:                                               ; preds = %28, %16
  br label %34

34:                                               ; preds = %33, %15
  br label %35

35:                                               ; preds = %34, %10
  %36 = load i32, ptr %3, align 4
  %37 = and i32 %36, 63
  %38 = trunc i32 %37 to i8
  ret i8 %38
}