; Function Attrs: mustprogress nofree norecurse nosync nounwind willreturn memory(read, inaccessiblemem: none) uwtable
define hidden noundef zeroext range(i8 0, 64) i8 @_ZN5Klass17compute_hash_slotEP6Symbol(ptr noundef readonly %0) local_unnamed_addr #4 align 2 {
  %2 = load ptr, ptr getelementptr inbounds (i8, ptr @_ZN6Symbol11_vm_symbolsE, i64 128), align 8
  %3 = icmp eq ptr %2, %0
  br i1 %3, label %26, label %4

4:                                                ; preds = %1
  %5 = load ptr, ptr getelementptr inbounds (i8, ptr @_ZN6Symbol11_vm_symbolsE, i64 592), align 8
  %6 = icmp eq ptr %5, %0
  br i1 %6, label %26, label %7

7:                                                ; preds = %4
  %8 = getelementptr inbounds i8, ptr %0, i64 4
  %9 = load i16, ptr %8, align 4
  %.not = icmp eq i16 %9, 0
  br i1 %.not, label %_ZN16java_lang_String9hash_codeEPKai.exit, label %.lr.ph.i.preheader

.lr.ph.i.preheader:                               ; preds = %7
  %10 = zext i16 %9 to i32
  %11 = getelementptr inbounds i8, ptr %0, i64 6
  br label %.lr.ph.i

.lr.ph.i:                                         ; preds = %.lr.ph.i.preheader, %.lr.ph.i
  %.08.i = phi i32 [ %16, %.lr.ph.i ], [ 0, %.lr.ph.i.preheader ]
  %.047.i = phi i32 [ %12, %.lr.ph.i ], [ %10, %.lr.ph.i.preheader ]
  %.056.i = phi ptr [ %17, %.lr.ph.i ], [ %11, %.lr.ph.i.preheader ]
  %12 = add nsw i32 %.047.i, -1
  %13 = mul i32 %.08.i, 31
  %14 = load i8, ptr %.056.i, align 1
  %15 = zext i8 %14 to i32
  %16 = add i32 %13, %15
  %17 = getelementptr inbounds i8, ptr %.056.i, i64 1
  %18 = icmp ugt i32 %.047.i, 1
  br i1 %18, label %.lr.ph.i, label %_ZN16java_lang_String9hash_codeEPKai.exit.loopexit, !llvm.loop !8

_ZN16java_lang_String9hash_codeEPKai.exit.loopexit: ; preds = %.lr.ph.i
  %19 = mul i32 %16, -1640531527
  %20 = lshr i32 %19, 26
  br label %_ZN16java_lang_String9hash_codeEPKai.exit

_ZN16java_lang_String9hash_codeEPKai.exit:        ; preds = %_ZN16java_lang_String9hash_codeEPKai.exit.loopexit, %7
  %.0.lcssa.i = phi i32 [ 0, %7 ], [ %20, %_ZN16java_lang_String9hash_codeEPKai.exit.loopexit ]
  %21 = load i8, ptr @StressSecondarySupers, align 1
  %22 = trunc i8 %21 to i1
  br i1 %22, label %23, label %26

23:                                               ; preds = %_ZN16java_lang_String9hash_codeEPKai.exit
  %.lhs.trunc = trunc nuw nsw i32 %.0.lcssa.i to i8
  %24 = urem i8 %.lhs.trunc, 3
  %narrow = mul nuw nsw i8 %24, 21
  %25 = zext nneg i8 %narrow to i32
  br label %26

26:                                               ; preds = %4, %1, %23, %_ZN16java_lang_String9hash_codeEPKai.exit
  %.0 = phi i32 [ %25, %23 ], [ %.0.lcssa.i, %_ZN16java_lang_String9hash_codeEPKai.exit ], [ 0, %1 ], [ 32, %4 ]
  %27 = trunc nuw nsw i32 %.0 to i8
  ret i8 %27
}